; ModuleID = '35/207.c'
source_filename = "35/207.c"
target datalayout = "e-m:e-p270:32:32-p271:32:32-p272:64:64-i64:64-f80:128-n8:16:32:64-S128"
target triple = "x86_64-pc-linux-gnu"

@.str = private unnamed_addr constant [6 x i8] c"%d,%d\00", align 1
@.str.1 = private unnamed_addr constant [3 x i8] c"%d\00", align 1
@.str.2 = private unnamed_addr constant [7 x i8] c"%d+%d\0A\00", align 1
@.str.3 = private unnamed_addr constant [4 x i8] c"No\0A\00", align 1

; Function Attrs: noinline nounwind uwtable
define dso_local void @main() #0 {
  %1 = alloca i32, align 4
  %2 = alloca i32, align 4
  %3 = alloca [10 x [10 x i32]], align 16
  %4 = alloca i32, align 4
  %5 = alloca i32, align 4
  %6 = alloca i32, align 4
  %7 = alloca i32, align 4
  %8 = alloca i32, align 4
  %9 = alloca i32, align 4
  %10 = alloca i32, align 4
  %11 = alloca i32, align 4
  store i32 0, i32* %11, align 4
  %12 = call i32 (i8*, ...) @__isoc99_scanf(i8* getelementptr inbounds ([6 x i8], [6 x i8]* @.str, i64 0, i64 0), i32* %1, i32* %2)
  store i32 0, i32* %4, align 4
  br label %13

13:                                               ; preds = %34, %0
  %14 = load i32, i32* %4, align 4
  %15 = load i32, i32* %1, align 4
  %16 = icmp slt i32 %14, %15
  br i1 %16, label %17, label %37

17:                                               ; preds = %13
  store i32 0, i32* %5, align 4
  br label %18

18:                                               ; preds = %30, %17
  %19 = load i32, i32* %5, align 4
  %20 = load i32, i32* %2, align 4
  %21 = icmp slt i32 %19, %20
  br i1 %21, label %22, label %33

22:                                               ; preds = %18
  %23 = load i32, i32* %4, align 4
  %24 = sext i32 %23 to i64
  %25 = getelementptr inbounds [10 x [10 x i32]], [10 x [10 x i32]]* %3, i64 0, i64 %24
  %26 = load i32, i32* %5, align 4
  %27 = sext i32 %26 to i64
  %28 = getelementptr inbounds [10 x i32], [10 x i32]* %25, i64 0, i64 %27
  %29 = call i32 (i8*, ...) @__isoc99_scanf(i8* getelementptr inbounds ([3 x i8], [3 x i8]* @.str.1, i64 0, i64 0), i32* %28)
  br label %30

30:                                               ; preds = %22
  %31 = load i32, i32* %5, align 4
  %32 = add nsw i32 %31, 1
  store i32 %32, i32* %5, align 4
  br label %18

33:                                               ; preds = %18
  br label %34

34:                                               ; preds = %33
  %35 = load i32, i32* %4, align 4
  %36 = add nsw i32 %35, 1
  store i32 %36, i32* %4, align 4
  br label %13

37:                                               ; preds = %13
  store i32 0, i32* %4, align 4
  br label %38

38:                                               ; preds = %129, %37
  %39 = load i32, i32* %4, align 4
  %40 = load i32, i32* %1, align 4
  %41 = icmp slt i32 %39, %40
  br i1 %41, label %42, label %132

42:                                               ; preds = %38
  store i32 0, i32* %6, align 4
  store i32 0, i32* %5, align 4
  br label %43

43:                                               ; preds = %66, %42
  %44 = load i32, i32* %5, align 4
  %45 = load i32, i32* %2, align 4
  %46 = icmp slt i32 %44, %45
  br i1 %46, label %47, label %69

47:                                               ; preds = %43
  %48 = load i32, i32* %4, align 4
  %49 = sext i32 %48 to i64
  %50 = getelementptr inbounds [10 x [10 x i32]], [10 x [10 x i32]]* %3, i64 0, i64 %49
  %51 = load i32, i32* %5, align 4
  %52 = sext i32 %51 to i64
  %53 = getelementptr inbounds [10 x i32], [10 x i32]* %50, i64 0, i64 %52
  %54 = load i32, i32* %53, align 4
  %55 = load i32, i32* %6, align 4
  %56 = icmp sgt i32 %54, %55
  br i1 %56, label %57, label %65

57:                                               ; preds = %47
  %58 = load i32, i32* %4, align 4
  %59 = sext i32 %58 to i64
  %60 = getelementptr inbounds [10 x [10 x i32]], [10 x [10 x i32]]* %3, i64 0, i64 %59
  %61 = load i32, i32* %5, align 4
  %62 = sext i32 %61 to i64
  %63 = getelementptr inbounds [10 x i32], [10 x i32]* %60, i64 0, i64 %62
  %64 = load i32, i32* %63, align 4
  store i32 %64, i32* %6, align 4
  br label %65

65:                                               ; preds = %57, %47
  br label %66

66:                                               ; preds = %65
  %67 = load i32, i32* %5, align 4
  %68 = add nsw i32 %67, 1
  store i32 %68, i32* %5, align 4
  br label %43

69:                                               ; preds = %43
  store i32 0, i32* %5, align 4
  br label %70

70:                                               ; preds = %88, %69
  %71 = load i32, i32* %5, align 4
  %72 = load i32, i32* %2, align 4
  %73 = icmp slt i32 %71, %72
  br i1 %73, label %74, label %91

74:                                               ; preds = %70
  %75 = load i32, i32* %6, align 4
  %76 = load i32, i32* %4, align 4
  %77 = sext i32 %76 to i64
  %78 = getelementptr inbounds [10 x [10 x i32]], [10 x [10 x i32]]* %3, i64 0, i64 %77
  %79 = load i32, i32* %5, align 4
  %80 = sext i32 %79 to i64
  %81 = getelementptr inbounds [10 x i32], [10 x i32]* %78, i64 0, i64 %80
  %82 = load i32, i32* %81, align 4
  %83 = icmp eq i32 %75, %82
  br i1 %83, label %84, label %87

84:                                               ; preds = %74
  %85 = load i32, i32* %4, align 4
  store i32 %85, i32* %7, align 4
  %86 = load i32, i32* %5, align 4
  store i32 %86, i32* %8, align 4
  br label %87

87:                                               ; preds = %84, %74
  br label %88

88:                                               ; preds = %87
  %89 = load i32, i32* %5, align 4
  %90 = add nsw i32 %89, 1
  store i32 %90, i32* %5, align 4
  br label %70

91:                                               ; preds = %70
  store i32 0, i32* %9, align 4
  br label %92

92:                                               ; preds = %115, %91
  %93 = load i32, i32* %9, align 4
  %94 = load i32, i32* %1, align 4
  %95 = icmp slt i32 %93, %94
  br i1 %95, label %96, label %118

96:                                               ; preds = %92
  %97 = load i32, i32* %9, align 4
  %98 = load i32, i32* %7, align 4
  %99 = icmp eq i32 %97, %98
  br i1 %99, label %100, label %101

100:                                              ; preds = %96
  br label %115

101:                                              ; preds = %96
  %102 = load i32, i32* %9, align 4
  %103 = sext i32 %102 to i64
  %104 = getelementptr inbounds [10 x [10 x i32]], [10 x [10 x i32]]* %3, i64 0, i64 %103
  %105 = load i32, i32* %8, align 4
  %106 = sext i32 %105 to i64
  %107 = getelementptr inbounds [10 x i32], [10 x i32]* %104, i64 0, i64 %106
  %108 = load i32, i32* %107, align 4
  %109 = load i32, i32* %6, align 4
  %110 = icmp sgt i32 %108, %109
  br i1 %110, label %111, label %112

111:                                              ; preds = %101
  store i32 1, i32* %10, align 4
  br label %113

112:                                              ; preds = %101
  store i32 0, i32* %10, align 4
  br label %118

113:                                              ; preds = %111
  br label %114

114:                                              ; preds = %113
  br label %115

115:                                              ; preds = %114, %100
  %116 = load i32, i32* %9, align 4
  %117 = add nsw i32 %116, 1
  store i32 %117, i32* %9, align 4
  br label %92

118:                                              ; preds = %112, %92
  %119 = load i32, i32* %10, align 4
  %120 = icmp eq i32 %119, 1
  br i1 %120, label %121, label %125

121:                                              ; preds = %118
  %122 = load i32, i32* %7, align 4
  %123 = load i32, i32* %8, align 4
  %124 = call i32 (i8*, ...) @printf(i8* getelementptr inbounds ([7 x i8], [7 x i8]* @.str.2, i64 0, i64 0), i32 %122, i32 %123)
  br label %128

125:                                              ; preds = %118
  %126 = load i32, i32* %11, align 4
  %127 = add nsw i32 %126, 1
  store i32 %127, i32* %11, align 4
  br label %128

128:                                              ; preds = %125, %121
  br label %129

129:                                              ; preds = %128
  %130 = load i32, i32* %4, align 4
  %131 = add nsw i32 %130, 1
  store i32 %131, i32* %4, align 4
  br label %38

132:                                              ; preds = %38
  %133 = load i32, i32* %11, align 4
  %134 = load i32, i32* %1, align 4
  %135 = icmp eq i32 %133, %134
  br i1 %135, label %136, label %138

136:                                              ; preds = %132
  %137 = call i32 (i8*, ...) @printf(i8* getelementptr inbounds ([4 x i8], [4 x i8]* @.str.3, i64 0, i64 0))
  br label %138

138:                                              ; preds = %136, %132
  ret void
}

declare dso_local i32 @__isoc99_scanf(i8*, ...) #1

declare dso_local i32 @printf(i8*, ...) #1


!llvm.module.flags = !{!0}
!llvm.ident = !{!1}

!0 = !{i32 1, !"wchar_size", i32 4}
!1 = !{!"clang version 10.0.0-4ubuntu1 "}
